target datalayout = "e-m:e-p270:32:32-p271:32:32-p272:64:64-i64:64-i128:128-f80:128-n8:16:32:64-S128"
target triple = "x86_64-pc-linux-gnu"

%"class.rocksdb::WriteThread" = type { ptr, i64, i64, i8, i8, i64, %"struct.std::atomic", %"struct.std::atomic", i64, %"struct.rocksdb::WriteThread::Writer", %"class.rocksdb::port::Mutex", %"class.rocksdb::port::CondVar", i64, i64 }
%"struct.std::atomic" = type { %"struct.std::__atomic_base" }
%"struct.std::__atomic_base" = type { ptr }
%"struct.rocksdb::WriteThread::Writer" = type <{ ptr, i8, i8, i8, i8, i32, i8, [7 x i8], i64, i64, ptr, ptr, i64, i64, ptr, ptr, i8, %"struct.std::atomic.3", [6 x i8], ptr, i64, %"class.rocksdb::Status", %"class.rocksdb::Status", %"struct.rocksdb::aligned_storage<std::mutex>::type", %"struct.rocksdb::aligned_storage<std::condition_variable>::type", ptr, ptr, i8, [7 x i8] }>
%"struct.std::atomic.3" = type { %"struct.std::__atomic_base.4" }
%"struct.std::__atomic_base.4" = type { i8 }
%"class.rocksdb::Status" = type { i8, i8, i8, i8, i8, i8, %"class.std::unique_ptr" }
%"class.std::unique_ptr" = type { %"struct.std::__uniq_ptr_data" }
%"struct.std::__uniq_ptr_data" = type { %"class.std::__uniq_ptr_impl" }
%"class.std::__uniq_ptr_impl" = type { %"class.std::tuple" }
%"class.std::tuple" = type { %"struct.std::_Tuple_impl" }
%"struct.std::_Tuple_impl" = type { %"struct.std::_Head_base.6" }
%"struct.std::_Head_base.6" = type { ptr }
%"struct.rocksdb::aligned_storage<std::mutex>::type" = type { [40 x i8] }
%"struct.rocksdb::aligned_storage<std::condition_variable>::type" = type { [48 x i8] }
%"class.rocksdb::port::Mutex" = type { %union.pthread_mutex_t }
%union.pthread_mutex_t = type { %struct.__pthread_mutex_s }
%struct.__pthread_mutex_s = type { i32, i32, i32, i32, i32, i16, i16, %struct.__pthread_internal_list }
%struct.__pthread_internal_list = type { ptr, ptr }
%"class.rocksdb::port::CondVar" = type { %union.pthread_cond_t, ptr }
%union.pthread_cond_t = type { %struct.__pthread_cond_s }
%struct.__pthread_cond_s = type { %union.__atomic_wide_counter, %union.__atomic_wide_counter, [2 x i32], [2 x i32], i32, i32, [2 x i32] }
%union.__atomic_wide_counter = type { i64 }
%"class.rocksdb::MutexLock" = type { ptr }

; Function Attrs: alwaysinline mustprogress nounwind uwtable
define linkonce_odr noundef ptr @_ZNSt13__atomic_baseIPN7rocksdb11WriteThread6WriterEE8exchangeES3_St12memory_order(ptr noundef nonnull align 8 dereferenceable(8) %0, ptr noundef %1, i32 noundef %2) #8 comdat align 2 {
  %4 = alloca ptr, align 8
  %5 = alloca ptr, align 8
  %6 = alloca i32, align 4
  %7 = alloca ptr, align 8
  %8 = alloca ptr, align 8
  store ptr %0, ptr %4, align 8, !tbaa !306
  store ptr %1, ptr %5, align 8, !tbaa !152
  store i32 %2, ptr %6, align 4, !tbaa !177
  %9 = load ptr, ptr %4, align 8
  %10 = getelementptr inbounds nuw %"struct.std::__atomic_base", ptr %9, i32 0, i32 0
  %11 = load i32, ptr %6, align 4, !tbaa !177
  %12 = load ptr, ptr %5, align 8, !tbaa !152
  store ptr %12, ptr %7, align 8, !tbaa !152
  switch i32 %11, label %13 [
    i32 1, label %16
    i32 2, label %16
    i32 3, label %19
    i32 4, label %22
    i32 5, label %25
  ]

13:                                               ; preds = %3
  %14 = load i64, ptr %7, align 8
  %15 = atomicrmw xchg ptr %10, i64 %14 monotonic, align 8
  store i64 %15, ptr %8, align 8
  br label %28

16:                                               ; preds = %3, %3
  %17 = load i64, ptr %7, align 8
  %18 = atomicrmw xchg ptr %10, i64 %17 acquire, align 8
  store i64 %18, ptr %8, align 8
  br label %28

19:                                               ; preds = %3
  %20 = load i64, ptr %7, align 8
  %21 = atomicrmw xchg ptr %10, i64 %20 release, align 8
  store i64 %21, ptr %8, align 8
  br label %28

22:                                               ; preds = %3
  %23 = load i64, ptr %7, align 8
  %24 = atomicrmw xchg ptr %10, i64 %23 acq_rel, align 8
  store i64 %24, ptr %8, align 8
  br label %28

25:                                               ; preds = %3
  %26 = load i64, ptr %7, align 8
  %27 = atomicrmw xchg ptr %10, i64 %26 seq_cst, align 8
  store i64 %27, ptr %8, align 8
  br label %28

28:                                               ; preds = %25, %22, %19, %16, %13
  %29 = load ptr, ptr %8, align 8, !tbaa !152
  ret ptr %29
}

; Function Attrs: mustprogress nounwind uwtable
define linkonce_odr void @_ZN7rocksdb9MutexLockD2Ev(ptr noundef nonnull align 8 dereferenceable(8) %0) unnamed_addr #3 comdat align 2 personality ptr @__gxx_personality_v0 {
  %2 = alloca ptr, align 8
  store ptr %0, ptr %2, align 8, !tbaa !247
  %3 = load ptr, ptr %2, align 8
  %4 = getelementptr inbounds nuw %"class.rocksdb::MutexLock", ptr %3, i32 0, i32 0
  %5 = load ptr, ptr %4, align 8, !tbaa !250
  invoke void @_ZN7rocksdb4port5Mutex6UnlockEv(ptr noundef nonnull align 8 dereferenceable(40) %5)
          to label %6 unwind label %7

6:                                                ; preds = %1
  ret void

7:                                                ; preds = %1
  %8 = landingpad { ptr, i32 }
          catch ptr null
  %9 = extractvalue { ptr, i32 } %8, 0
  call void @__clang_call_terminate(ptr %9) #18
  unreachable
}

; Function Attrs: mustprogress nounwind uwtable
define linkonce_odr noundef ptr @_ZNSt6atomicIPN7rocksdb11WriteThread6WriterEE8exchangeES3_St12memory_order(ptr noundef nonnull align 8 dereferenceable(8) %0, ptr noundef %1, i32 noundef %2) #3 comdat align 2 {
  %4 = alloca ptr, align 8
  %5 = alloca ptr, align 8
  %6 = alloca i32, align 4
  store ptr %0, ptr %4, align 8, !tbaa !150
  store ptr %1, ptr %5, align 8, !tbaa !152
  store i32 %2, ptr %6, align 4, !tbaa !177
  %7 = load ptr, ptr %4, align 8
  %8 = getelementptr inbounds nuw %"struct.std::atomic", ptr %7, i32 0, i32 0
  %9 = load ptr, ptr %5, align 8, !tbaa !152
  %10 = load i32, ptr %6, align 4, !tbaa !177
  %11 = call noundef ptr @_ZNSt13__atomic_baseIPN7rocksdb11WriteThread6WriterEE8exchangeES3_St12memory_order(ptr noundef nonnull align 8 dereferenceable(8) %8, ptr noundef %9, i32 noundef %10) #4
  ret ptr %11
}

; Function Attrs: mustprogress uwtable
define linkonce_odr void @_ZN7rocksdb9MutexLockC2EPNS_4port5MutexE(ptr noundef nonnull align 8 dereferenceable(8) %0, ptr noundef %1) unnamed_addr #5 comdat align 2 {
  %3 = alloca ptr, align 8
  %4 = alloca ptr, align 8
  store ptr %0, ptr %3, align 8, !tbaa !247
  store ptr %1, ptr %4, align 8, !tbaa !249
  %5 = load ptr, ptr %3, align 8
  %6 = getelementptr inbounds nuw %"class.rocksdb::MutexLock", ptr %5, i32 0, i32 0
  %7 = load ptr, ptr %4, align 8, !tbaa !249
  store ptr %7, ptr %6, align 8, !tbaa !250
  %8 = getelementptr inbounds nuw %"class.rocksdb::MutexLock", ptr %5, i32 0, i32 0
  %9 = load ptr, ptr %8, align 8, !tbaa !250
  call void @_ZN7rocksdb4port5Mutex4LockEv(ptr noundef nonnull align 8 dereferenceable(40) %9)
  ret void
}

; Function Attrs: mustprogress uwtable
define void @_ZN7rocksdb11WriteThread13EndWriteStallEv(ptr noundef nonnull align 8 dereferenceable(432) %0) #5 align 2 personality ptr @__gxx_personality_v0 {
  %2 = alloca ptr, align 8
  %3 = alloca %"class.rocksdb::MutexLock", align 8
  %4 = alloca ptr, align 8
  %5 = alloca i32, align 4
  store ptr %0, ptr %2, align 8, !tbaa !48
  %6 = load ptr, ptr %2, align 8
  call void @llvm.lifetime.start.p0(i64 8, ptr %3) #4
  %7 = getelementptr inbounds nuw %"class.rocksdb::WriteThread", ptr %6, i32 0, i32 10
  call void @_ZN7rocksdb9MutexLockC2EPNS_4port5MutexE(ptr noundef nonnull align 8 dereferenceable(8) %3, ptr noundef %7)
  %8 = getelementptr inbounds nuw %"class.rocksdb::WriteThread", ptr %6, i32 0, i32 9
  %9 = getelementptr inbounds nuw %"struct.rocksdb::WriteThread::Writer", ptr %8, i32 0, i32 25
  %10 = load ptr, ptr %9, align 8, !tbaa !265
  %11 = icmp ne ptr %10, null
  br i1 %11, label %12, label %20

12:                                               ; preds = %1
  %13 = getelementptr inbounds nuw %"class.rocksdb::WriteThread", ptr %6, i32 0, i32 9
  %14 = getelementptr inbounds nuw %"struct.rocksdb::WriteThread::Writer", ptr %13, i32 0, i32 26
  %15 = load ptr, ptr %14, align 8, !tbaa !267
  %16 = getelementptr inbounds nuw %"class.rocksdb::WriteThread", ptr %6, i32 0, i32 9
  %17 = getelementptr inbounds nuw %"struct.rocksdb::WriteThread::Writer", ptr %16, i32 0, i32 25
  %18 = load ptr, ptr %17, align 8, !tbaa !265
  %19 = getelementptr inbounds nuw %"struct.rocksdb::WriteThread::Writer", ptr %18, i32 0, i32 26
  store ptr %15, ptr %19, align 8, !tbaa !171
  br label %20

20:                                               ; preds = %12, %1
  %21 = getelementptr inbounds nuw %"class.rocksdb::WriteThread", ptr %6, i32 0, i32 6
  %22 = getelementptr inbounds nuw %"class.rocksdb::WriteThread", ptr %6, i32 0, i32 9
  %23 = getelementptr inbounds nuw %"struct.rocksdb::WriteThread::Writer", ptr %22, i32 0, i32 25
  %24 = load ptr, ptr %23, align 8, !tbaa !265
  %25 = call noundef ptr @_ZNSt6atomicIPN7rocksdb11WriteThread6WriterEE8exchangeES3_St12memory_order(ptr noundef nonnull align 8 dereferenceable(8) %21, ptr noundef %24, i32 noundef 5) #4
  %26 = getelementptr inbounds nuw %"class.rocksdb::WriteThread", ptr %6, i32 0, i32 13
  %27 = load i64, ptr %26, align 8, !tbaa !149
  %28 = add i64 %27, 1
  store i64 %28, ptr %26, align 8, !tbaa !149
  %29 = getelementptr inbounds nuw %"class.rocksdb::WriteThread", ptr %6, i32 0, i32 11
  invoke void @_ZN7rocksdb4port7CondVar9SignalAllEv(ptr noundef nonnull align 8 dereferenceable(56) %29)
          to label %30 unwind label %31

30:                                               ; preds = %20
  call void @_ZN7rocksdb9MutexLockD2Ev(ptr noundef nonnull align 8 dereferenceable(8) %3) #4
  call void @llvm.lifetime.end.p0(i64 8, ptr %3) #4
  ret void

31:                                               ; preds = %20
  %32 = landingpad { ptr, i32 }
          cleanup
  %33 = extractvalue { ptr, i32 } %32, 0
  store ptr %33, ptr %4, align 8
  %34 = extractvalue { ptr, i32 } %32, 1
  store i32 %34, ptr %5, align 4
  call void @_ZN7rocksdb9MutexLockD2Ev(ptr noundef nonnull align 8 dereferenceable(8) %3) #4
  call void @llvm.lifetime.end.p0(i64 8, ptr %3) #4
  br label %35

35:                                               ; preds = %31
  %36 = load ptr, ptr %4, align 8
  %37 = load i32, ptr %5, align 4
  %38 = insertvalue { ptr, i32 } poison, ptr %36, 0
  %39 = insertvalue { ptr, i32 } %38, i32 %37, 1
  resume { ptr, i32 } %39
}