; Function Attrs: mustprogress uwtable
define void @_ZN7rocksdb11WriteThread13EndWriteStallEv(ptr noundef nonnull align 8 dereferenceable(432) %0) local_unnamed_addr #4 align 2 personality ptr @__gxx_personality_v0 {
  %2 = getelementptr inbounds nuw i8, ptr %0, i64 320
  tail call void @_ZN7rocksdb4port5Mutex4LockEv(ptr noundef nonnull align 8 dereferenceable(40) %2)
  %3 = getelementptr inbounds nuw i8, ptr %0, i64 296
  %4 = load ptr, ptr %3, align 8, !tbaa !171
  %.not = icmp eq ptr %4, null
  br i1 %.not, label %9, label %5

5:                                                ; preds = %1
  %6 = getelementptr inbounds nuw i8, ptr %0, i64 304
  %7 = load ptr, ptr %6, align 8, !tbaa !172
  %8 = getelementptr inbounds nuw i8, ptr %4, i64 240
  store ptr %7, ptr %8, align 8, !tbaa !165
  br label %9

9:                                                ; preds = %5, %1
  %10 = getelementptr inbounds nuw i8, ptr %0, i64 40
  %11 = ptrtoint ptr %4 to i64
  %12 = atomicrmw xchg ptr %10, i64 %11 seq_cst, align 8
  %13 = getelementptr inbounds nuw i8, ptr %0, i64 424
  %14 = load i64, ptr %13, align 8, !tbaa !173
  %15 = add i64 %14, 1
  store i64 %15, ptr %13, align 8, !tbaa !173
  %16 = getelementptr inbounds nuw i8, ptr %0, i64 360
  invoke void @_ZN7rocksdb4port7CondVar9SignalAllEv(ptr noundef nonnull align 8 dereferenceable(56) %16)
          to label %17 unwind label %21

17:                                               ; preds = %9
  invoke void @_ZN7rocksdb4port5Mutex6UnlockEv(ptr noundef nonnull align 8 dereferenceable(40) %2)
          to label %_ZN7rocksdb9MutexLockD2Ev.exit unwind label %18

18:                                               ; preds = %17
  %19 = landingpad { ptr, i32 }
          catch ptr null
  %20 = extractvalue { ptr, i32 } %19, 0
  tail call void @__clang_call_terminate(ptr %20) #24
  unreachable

_ZN7rocksdb9MutexLockD2Ev.exit:                   ; preds = %17
  ret void

21:                                               ; preds = %9
  %22 = landingpad { ptr, i32 }
          cleanup
  invoke void @_ZN7rocksdb4port5Mutex6UnlockEv(ptr noundef nonnull align 8 dereferenceable(40) %2)
          to label %_ZN7rocksdb9MutexLockD2Ev.exit2 unwind label %23

23:                                               ; preds = %21
  %24 = landingpad { ptr, i32 }
          catch ptr null
  %25 = extractvalue { ptr, i32 } %24, 0
  tail call void @__clang_call_terminate(ptr %25) #24
  unreachable

_ZN7rocksdb9MutexLockD2Ev.exit2:                  ; preds = %21
  resume { ptr, i32 } %22
}